target datalayout = "e-m:e-p270:32:32-p271:32:32-p272:64:64-i64:64-i128:128-f80:128-n8:16:32:64-S128"
target triple = "x86_64-pc-linux-gnu"

%struct.Aig_Man_t_ = type { ptr, ptr, ptr, ptr, ptr, ptr, ptr, %struct.Aig_Obj_t_, i32, i32, i32, i32, i32, i32, [7 x i32], i32, ptr, i32, ptr, i32, ptr, i32, i32, i32, ptr, i32, i32, i32, i32, i32, ptr, ptr, i32, ptr, ptr, i32, ptr, ptr, i32, i32, i32, ptr, ptr, ptr, ptr, ptr, ptr, ptr, ptr, ptr, ptr, ptr, ptr, ptr, ptr, i32, ptr, ptr, ptr, ptr, i32, i64, i64, i64, ptr, ptr }
%struct.Aig_Obj_t_ = type { %union.anon, ptr, ptr, i64, i32, i32, %union.anon.0 }
%union.anon = type { ptr }
%union.anon.0 = type { ptr }

; Function Attrs: nounwind uwtable
define void @Aig_ObjOrderInsert(ptr noundef %0, i32 noundef %1) #0 {
  %3 = alloca ptr, align 8
  %4 = alloca i32, align 4
  %5 = alloca i32, align 4
  %6 = alloca i32, align 4
  store ptr %0, ptr %3, align 8, !tbaa !3
  store i32 %1, ptr %4, align 4, !tbaa !23
  call void @llvm.lifetime.start.p0(i64 4, ptr %5) #7
  %7 = load i32, ptr %4, align 4, !tbaa !23
  %8 = load ptr, ptr %3, align 8, !tbaa !3
  %9 = getelementptr inbounds nuw %struct.Aig_Man_t_, ptr %8, i32 0, i32 25
  %10 = load i32, ptr %9, align 8, !tbaa !8
  %11 = icmp sge i32 %7, %10
  br i1 %11, label %12, label %57

12:                                               ; preds = %2
  call void @llvm.lifetime.start.p0(i64 4, ptr %6) #7
  %13 = load i32, ptr %4, align 4, !tbaa !23
  %14 = mul nsw i32 2, %13
  store i32 %14, ptr %6, align 4, !tbaa !23
  %15 = load ptr, ptr %3, align 8, !tbaa !3
  %16 = getelementptr inbounds nuw %struct.Aig_Man_t_, ptr %15, i32 0, i32 24
  %17 = load ptr, ptr %16, align 8, !tbaa !22
  %18 = icmp ne ptr %17, null
  br i1 %18, label %19, label %28

19:                                               ; preds = %12
  %20 = load ptr, ptr %3, align 8, !tbaa !3
  %21 = getelementptr inbounds nuw %struct.Aig_Man_t_, ptr %20, i32 0, i32 24
  %22 = load ptr, ptr %21, align 8, !tbaa !22
  %23 = load i32, ptr %6, align 4, !tbaa !23
  %24 = mul nsw i32 2, %23
  %25 = sext i32 %24 to i64
  %26 = mul i64 4, %25
  %27 = call ptr @realloc(ptr noundef %22, i64 noundef %26) #9
  br label %34

28:                                               ; preds = %12
  %29 = load i32, ptr %6, align 4, !tbaa !23
  %30 = mul nsw i32 2, %29
  %31 = sext i32 %30 to i64
  %32 = mul i64 4, %31
  %33 = call noalias ptr @malloc(i64 noundef %32) #8
  br label %34

34:                                               ; preds = %28, %19
  %35 = phi ptr [ %27, %19 ], [ %33, %28 ]
  %36 = load ptr, ptr %3, align 8, !tbaa !3
  %37 = getelementptr inbounds nuw %struct.Aig_Man_t_, ptr %36, i32 0, i32 24
  store ptr %35, ptr %37, align 8, !tbaa !22
  %38 = load ptr, ptr %3, align 8, !tbaa !3
  %39 = getelementptr inbounds nuw %struct.Aig_Man_t_, ptr %38, i32 0, i32 24
  %40 = load ptr, ptr %39, align 8, !tbaa !22
  %41 = load ptr, ptr %3, align 8, !tbaa !3
  %42 = getelementptr inbounds nuw %struct.Aig_Man_t_, ptr %41, i32 0, i32 25
  %43 = load i32, ptr %42, align 8, !tbaa !8
  %44 = mul nsw i32 2, %43
  %45 = sext i32 %44 to i64
  %46 = getelementptr inbounds i32, ptr %40, i64 %45
  %47 = load i32, ptr %6, align 4, !tbaa !23
  %48 = load ptr, ptr %3, align 8, !tbaa !3
  %49 = getelementptr inbounds nuw %struct.Aig_Man_t_, ptr %48, i32 0, i32 25
  %50 = load i32, ptr %49, align 8, !tbaa !8
  %51 = sub nsw i32 %47, %50
  %52 = sext i32 %51 to i64
  %53 = mul i64 8, %52
  call void @llvm.memset.p0.i64(ptr align 4 %46, i8 -1, i64 %53, i1 false)
  %54 = load i32, ptr %6, align 4, !tbaa !23
  %55 = load ptr, ptr %3, align 8, !tbaa !3
  %56 = getelementptr inbounds nuw %struct.Aig_Man_t_, ptr %55, i32 0, i32 25
  store i32 %54, ptr %56, align 8, !tbaa !8
  call void @llvm.lifetime.end.p0(i64 4, ptr %6) #7
  br label %57

57:                                               ; preds = %34, %2
  %58 = load ptr, ptr %3, align 8, !tbaa !3
  %59 = getelementptr inbounds nuw %struct.Aig_Man_t_, ptr %58, i32 0, i32 24
  %60 = load ptr, ptr %59, align 8, !tbaa !22
  %61 = load ptr, ptr %3, align 8, !tbaa !3
  %62 = getelementptr inbounds nuw %struct.Aig_Man_t_, ptr %61, i32 0, i32 27
  %63 = load i32, ptr %62, align 8, !tbaa !24
  %64 = mul nsw i32 2, %63
  %65 = sext i32 %64 to i64
  %66 = getelementptr inbounds i32, ptr %60, i64 %65
  %67 = load i32, ptr %66, align 4, !tbaa !23
  store i32 %67, ptr %5, align 4, !tbaa !23
  %68 = load i32, ptr %5, align 4, !tbaa !23
  %69 = load ptr, ptr %3, align 8, !tbaa !3
  %70 = getelementptr inbounds nuw %struct.Aig_Man_t_, ptr %69, i32 0, i32 24
  %71 = load ptr, ptr %70, align 8, !tbaa !22
  %72 = load i32, ptr %4, align 4, !tbaa !23
  %73 = mul nsw i32 2, %72
  %74 = sext i32 %73 to i64
  %75 = getelementptr inbounds i32, ptr %71, i64 %74
  store i32 %68, ptr %75, align 4, !tbaa !23
  %76 = load i32, ptr %4, align 4, !tbaa !23
  %77 = load ptr, ptr %3, align 8, !tbaa !3
  %78 = getelementptr inbounds nuw %struct.Aig_Man_t_, ptr %77, i32 0, i32 24
  %79 = load ptr, ptr %78, align 8, !tbaa !22
  %80 = load i32, ptr %5, align 4, !tbaa !23
  %81 = mul nsw i32 2, %80
  %82 = add nsw i32 %81, 1
  %83 = sext i32 %82 to i64
  %84 = getelementptr inbounds i32, ptr %79, i64 %83
  store i32 %76, ptr %84, align 4, !tbaa !23
  %85 = load i32, ptr %4, align 4, !tbaa !23
  %86 = load ptr, ptr %3, align 8, !tbaa !3
  %87 = getelementptr inbounds nuw %struct.Aig_Man_t_, ptr %86, i32 0, i32 24
  %88 = load ptr, ptr %87, align 8, !tbaa !22
  %89 = load ptr, ptr %3, align 8, !tbaa !3
  %90 = getelementptr inbounds nuw %struct.Aig_Man_t_, ptr %89, i32 0, i32 27
  %91 = load i32, ptr %90, align 8, !tbaa !24
  %92 = mul nsw i32 2, %91
  %93 = sext i32 %92 to i64
  %94 = getelementptr inbounds i32, ptr %88, i64 %93
  store i32 %85, ptr %94, align 4, !tbaa !23
  %95 = load ptr, ptr %3, align 8, !tbaa !3
  %96 = getelementptr inbounds nuw %struct.Aig_Man_t_, ptr %95, i32 0, i32 27
  %97 = load i32, ptr %96, align 8, !tbaa !24
  %98 = load ptr, ptr %3, align 8, !tbaa !3
  %99 = getelementptr inbounds nuw %struct.Aig_Man_t_, ptr %98, i32 0, i32 24
  %100 = load ptr, ptr %99, align 8, !tbaa !22
  %101 = load i32, ptr %4, align 4, !tbaa !23
  %102 = mul nsw i32 2, %101
  %103 = add nsw i32 %102, 1
  %104 = sext i32 %103 to i64
  %105 = getelementptr inbounds i32, ptr %100, i64 %104
  store i32 %97, ptr %105, align 4, !tbaa !23
  %106 = load ptr, ptr %3, align 8, !tbaa !3
  %107 = getelementptr inbounds nuw %struct.Aig_Man_t_, ptr %106, i32 0, i32 28
  %108 = load i32, ptr %107, align 4, !tbaa !36
  %109 = add nsw i32 %108, 1
  store i32 %109, ptr %107, align 4, !tbaa !36
  call void @llvm.lifetime.end.p0(i64 4, ptr %5) #7
  ret void
}