; Function Attrs: mustprogress nounwind willreturn uwtable
define void @Aig_ObjOrderInsert(ptr noundef captures(none) %0, i32 noundef %1) local_unnamed_addr #3 {
  %3 = getelementptr inbounds nuw i8, ptr %0, i64 224
  %4 = load i32, ptr %3, align 8, !tbaa !23
  %.not = icmp slt i32 %1, %4
  br i1 %.not, label %._crit_edge, label %5

._crit_edge:                                      ; preds = %2
  %.phi.trans.insert = getelementptr inbounds nuw i8, ptr %0, i64 216
  %.pre30 = load ptr, ptr %.phi.trans.insert, align 8, !tbaa !24
  %.pre31 = shl nsw i32 %1, 1
  br label %25

5:                                                ; preds = %2
  %6 = shl nsw i32 %1, 1
  %7 = getelementptr inbounds nuw i8, ptr %0, i64 216
  %8 = load ptr, ptr %7, align 8, !tbaa !24
  %.not29 = icmp eq ptr %8, null
  %9 = shl nsw i32 %1, 2
  %10 = sext i32 %9 to i64
  %11 = shl nsw i64 %10, 2
  br i1 %.not29, label %14, label %12

12:                                               ; preds = %5
  %13 = tail call ptr @realloc(ptr noundef nonnull %8, i64 noundef %11) #10
  %.pre = load i32, ptr %3, align 8, !tbaa !23
  br label %16

14:                                               ; preds = %5
  %15 = tail call noalias ptr @malloc(i64 noundef %11) #9
  br label %16

16:                                               ; preds = %14, %12
  %17 = phi i32 [ %.pre, %12 ], [ %4, %14 ]
  %18 = phi ptr [ %13, %12 ], [ %15, %14 ]
  store ptr %18, ptr %7, align 8, !tbaa !24
  %19 = shl nsw i32 %17, 1
  %20 = sext i32 %19 to i64
  %21 = getelementptr inbounds i32, ptr %18, i64 %20
  %22 = sub nsw i32 %6, %17
  %23 = sext i32 %22 to i64
  %24 = shl nsw i64 %23, 3
  tail call void @llvm.memset.p0.i64(ptr align 4 %21, i8 -1, i64 %24, i1 false)
  store i32 %6, ptr %3, align 8, !tbaa !23
  br label %25

25:                                               ; preds = %._crit_edge, %16
  %.pre-phi = phi i32 [ %.pre31, %._crit_edge ], [ %6, %16 ]
  %26 = phi ptr [ %.pre30, %._crit_edge ], [ %18, %16 ]
  %27 = getelementptr inbounds nuw i8, ptr %0, i64 232
  %28 = load i32, ptr %27, align 8, !tbaa !26
  %29 = shl nsw i32 %28, 1
  %30 = sext i32 %29 to i64
  %31 = getelementptr inbounds i32, ptr %26, i64 %30
  %32 = load i32, ptr %31, align 4, !tbaa !25
  %33 = sext i32 %.pre-phi to i64
  %34 = getelementptr inbounds i32, ptr %26, i64 %33
  store i32 %32, ptr %34, align 4, !tbaa !25
  %35 = shl nsw i32 %32, 1
  %36 = or disjoint i32 %35, 1
  %37 = sext i32 %36 to i64
  %38 = getelementptr inbounds i32, ptr %26, i64 %37
  store i32 %1, ptr %38, align 4, !tbaa !25
  %39 = load i32, ptr %27, align 8, !tbaa !26
  %40 = shl nsw i32 %39, 1
  %41 = sext i32 %40 to i64
  %42 = getelementptr inbounds i32, ptr %26, i64 %41
  store i32 %1, ptr %42, align 4, !tbaa !25
  %43 = load i32, ptr %27, align 8, !tbaa !26
  %44 = or disjoint i32 %.pre-phi, 1
  %45 = sext i32 %44 to i64
  %46 = getelementptr inbounds i32, ptr %26, i64 %45
  store i32 %43, ptr %46, align 4, !tbaa !25
  %47 = getelementptr inbounds nuw i8, ptr %0, i64 236
  %48 = load i32, ptr %47, align 4, !tbaa !31
  %49 = add nsw i32 %48, 1
  store i32 %49, ptr %47, align 4, !tbaa !31
  ret void
}